target datalayout = "e-m:e-p270:32:32-p271:32:32-p272:64:64-i64:64-i128:128-f80:128-n8:16:32:64-S128"
target triple = "x86_64-pc-linux-gnu"

@q931_tpkt_pdu_handle = internal global ptr null, align 8
@q931_desegment = internal global i8 1, align 1

; Function Attrs: null_pointer_is_valid sspstrong uwtable
define internal zeroext i1 @dissect_q931_tpkt_heur(ptr noundef %0, ptr noundef %1, ptr noundef %2, ptr noundef %3) #0 {
  %5 = alloca i1, align 1
  %6 = alloca ptr, align 8
  %7 = alloca ptr, align 8
  %8 = alloca ptr, align 8
  %9 = alloca ptr, align 8
  %10 = alloca i32, align 4
  %11 = alloca i32, align 4
  store ptr %0, ptr %6, align 8
  store ptr %1, ptr %7, align 8
  store ptr %2, ptr %8, align 8
  store ptr %3, ptr %9, align 8
  call void @llvm.lifetime.start.p0(i64 4, ptr %10) #8
  %12 = load ptr, ptr %6, align 8
  %13 = call i32 @is_tpkt(ptr noundef %12, i32 noundef 3)
  store i32 %13, ptr %10, align 4
  %14 = load i32, ptr %10, align 4
  %15 = icmp eq i32 %14, -1
  br i1 %15, label %16, label %17

16:                                               ; preds = %4
  store i1 false, ptr %5, align 1
  store i32 1, ptr %11, align 4
  br label %50

17:                                               ; preds = %4
  %18 = load ptr, ptr %6, align 8
  %19 = call i32 @tvb_reported_length(ptr noundef %18)
  %20 = icmp eq i32 %19, 4
  br i1 %20, label %21, label %28

21:                                               ; preds = %17
  %22 = load ptr, ptr %6, align 8
  %23 = load ptr, ptr %7, align 8
  %24 = load ptr, ptr %8, align 8
  %25 = load i8, ptr @q931_desegment, align 1, !range !6, !noundef !7
  %26 = trunc i8 %25 to i1
  %27 = load ptr, ptr @q931_tpkt_pdu_handle, align 8
  call void @dissect_tpkt_encap(ptr noundef %22, ptr noundef %23, ptr noundef %24, i1 noundef zeroext %26, ptr noundef %27)
  store i1 true, ptr %5, align 1
  store i32 1, ptr %11, align 4
  br label %50

28:                                               ; preds = %17
  %29 = load ptr, ptr %6, align 8
  %30 = call zeroext i1 @tvb_bytes_exist(ptr noundef %29, i32 noundef 4, i32 noundef 3)
  br i1 %30, label %32, label %31

31:                                               ; preds = %28
  store i1 false, ptr %5, align 1
  store i32 1, ptr %11, align 4
  br label %50

32:                                               ; preds = %28
  %33 = load ptr, ptr %6, align 8
  %34 = call zeroext i8 @tvb_get_uint8(ptr noundef %33, i32 noundef 4)
  %35 = zext i8 %34 to i32
  %36 = icmp ne i32 %35, 8
  br i1 %36, label %37, label %43

37:                                               ; preds = %32
  %38 = load ptr, ptr %6, align 8
  %39 = call zeroext i8 @tvb_get_uint8(ptr noundef %38, i32 noundef 4)
  %40 = zext i8 %39 to i32
  %41 = icmp ne i32 %40, 3
  br i1 %41, label %42, label %43

42:                                               ; preds = %37
  store i1 false, ptr %5, align 1
  store i32 1, ptr %11, align 4
  br label %50

43:                                               ; preds = %37, %32
  %44 = load ptr, ptr %6, align 8
  %45 = load ptr, ptr %7, align 8
  %46 = load ptr, ptr %8, align 8
  %47 = load i8, ptr @q931_desegment, align 1, !range !6, !noundef !7
  %48 = trunc i8 %47 to i1
  %49 = load ptr, ptr @q931_tpkt_pdu_handle, align 8
  call void @dissect_tpkt_encap(ptr noundef %44, ptr noundef %45, ptr noundef %46, i1 noundef zeroext %48, ptr noundef %49)
  store i1 true, ptr %5, align 1
  store i32 1, ptr %11, align 4
  br label %50

50:                                               ; preds = %43, %42, %31, %21, %16
  call void @llvm.lifetime.end.p0(i64 4, ptr %10) #8
  %51 = load i1, ptr %5, align 1
  ret i1 %51
}