; Function Attrs: null_pointer_is_valid sspstrong uwtable
define internal noundef zeroext i1 @dissect_q931_tpkt_heur(ptr noundef %0, ptr noundef %1, ptr noundef %2, ptr readnone captures(none) %3) #0 {
  %5 = tail call i32 @is_tpkt(ptr noundef %0, i32 noundef 3)
  %6 = icmp eq i32 %5, -1
  br i1 %6, label %19, label %7

7:                                                ; preds = %4
  %8 = tail call i32 @tvb_reported_length(ptr noundef %0)
  %9 = icmp eq i32 %8, 4
  br i1 %9, label %.sink.split, label %10

10:                                               ; preds = %7
  %11 = tail call zeroext i1 @tvb_bytes_exist(ptr noundef %0, i32 noundef 4, i32 noundef 3)
  br i1 %11, label %12, label %19

12:                                               ; preds = %10
  %13 = tail call zeroext i8 @tvb_get_uint8(ptr noundef %0, i32 noundef 4)
  %.not = icmp eq i8 %13, 8
  br i1 %.not, label %.sink.split, label %14

14:                                               ; preds = %12
  %15 = tail call zeroext i8 @tvb_get_uint8(ptr noundef %0, i32 noundef 4)
  %.not12 = icmp eq i8 %15, 3
  br i1 %.not12, label %.sink.split, label %19

.sink.split:                                      ; preds = %12, %14, %7
  %16 = load i8, ptr @q931_desegment, align 1, !range !6, !noundef !7
  %17 = trunc nuw i8 %16 to i1
  %18 = load ptr, ptr @q931_tpkt_pdu_handle, align 8
  tail call void @dissect_tpkt_encap(ptr noundef %0, ptr noundef %1, ptr noundef %2, i1 noundef zeroext %17, ptr noundef %18)
  br label %19

19:                                               ; preds = %.sink.split, %14, %10, %4
  %.0 = phi i1 [ false, %4 ], [ false, %10 ], [ false, %14 ], [ true, %.sink.split ]
  ret i1 %.0
}